	.file	"alloc_overflow.c"
	.text
	.globl	function
	.type	function, @function
function:
.LFB0:
	.cfi_startproc
	pushl	%ebp
	.cfi_def_cfa_offset 8
	.cfi_offset 5, -8
	movl	%esp, %ebp
	.cfi_def_cfa_register 5
	subl	$40, %esp
	movl	8(%ebp), %eax
	movl	%eax, 4(%esp)
	leal	-24(%ebp), %eax
	movl	%eax, (%esp)
	call	strcpy
	leave
	.cfi_restore 5
	.cfi_def_cfa 4, 4
	ret
	.cfi_endproc
.LFE0:
	.size	function, .-function
	.globl	main
	.type	main, @function
main:
.LFB1:
	.cfi_startproc
	pushl	%ebp
	.cfi_def_cfa_offset 8
	.cfi_offset 5, -8
	movl	%esp, %ebp
	.cfi_def_cfa_register 5
	andl	$-16, %esp
	subl	$288, %esp
	movl	$0, 284(%esp)
	jmp	.L3
.L4:
	leal	28(%esp), %edx
	movl	284(%esp), %eax
	addl	%edx, %eax
	movb	$97, (%eax)
	addl	$1, 284(%esp)
.L3:
	cmpl	$255, 284(%esp)
	jle	.L4
	leal	28(%esp), %eax
	movl	%eax, (%esp)
	call	function
	leave
	.cfi_restore 5
	.cfi_def_cfa 4, 4
	ret
	.cfi_endproc
.LFE1:
	.size	main, .-main
	.ident	"GCC: (GNU) 4.8.5 20150623 (Red Hat 4.8.5-16)"
	.section	.note.GNU-stack,"",@progbits
